target datalayout = "e-m:e-p270:32:32-p271:32:32-p272:64:64-i64:64-i128:128-f80:128-n8:16:32:64-S128"
target triple = "x86_64-pc-linux-gnu"

%struct.expert_field = type { i32, i32 }
%struct._packet_info = type { ptr, ptr, i32, i32, %struct.nstime_t, %struct.nstime_t, %struct.nstime_t, i8, ptr, ptr, ptr, ptr, %struct._address, %struct._address, %struct._address, %struct._address, %struct._address, %struct._address, i32, ptr, i8, [3 x i8], %struct.anon, i32, i32, i32, i32, ptr, i8, ptr, ptr, i16, i16, i32, i32, i16, i32, i32, ptr, ptr, ptr, i8, i8, i16, i16, i16, i32, i16, i16, ptr, ptr, ptr, ptr, ptr, i32, i32 }
%struct.nstime_t = type { i64, i32 }
%struct._address = type { i32, i32, ptr, ptr }
%struct.anon = type { i8, [3 x i8] }

@hf_gsm_a_extension = external global i32, align 4
@hf_gsm_a_spare_bits = external global i32, align 4
@hf_gsm_a_dtap_type_of_sub_addr = internal global i32 0, align 4
@hf_gsm_a_dtap_odd_even_ind = internal global i32 0, align 4
@hf_gsm_a_dtap_afi = internal global i32 0, align 4
@hf_gsm_a_dtap_subaddress = internal global i32 0, align 4
@hf_gsm_a_dtap_subaddress_information = internal global i32 0, align 4
@ei_gsm_a_dtap_invalid_ia5_character = internal global %struct.expert_field zeroinitializer, align 4

; Function Attrs: null_pointer_is_valid sspstrong uwtable
define internal zeroext i16 @de_sub_addr(ptr noundef %0, ptr noundef %1, ptr noundef %2, i32 noundef %3, i32 noundef %4, ptr noundef %5) #1 {
  %7 = alloca i16, align 2
  %8 = alloca ptr, align 8
  %9 = alloca ptr, align 8
  %10 = alloca ptr, align 8
  %11 = alloca i32, align 4
  %12 = alloca i32, align 4
  %13 = alloca ptr, align 8
  %14 = alloca i32, align 4
  %15 = alloca i32, align 4
  %16 = alloca i32, align 4
  %17 = alloca i8, align 1
  %18 = alloca i8, align 1
  %19 = alloca i8, align 1
  %20 = alloca i8, align 1
  %21 = alloca i8, align 1
  %22 = alloca ptr, align 8
  %23 = alloca i8, align 1
  %24 = alloca ptr, align 8
  %25 = alloca i32, align 4
  store ptr %0, ptr %8, align 8
  store ptr %1, ptr %9, align 8
  store ptr %2, ptr %10, align 8
  store i32 %3, ptr %11, align 4
  store i32 %4, ptr %12, align 4
  store ptr %5, ptr %13, align 8
  call void @llvm.lifetime.start.p0(i64 4, ptr %14) #7
  call void @llvm.lifetime.start.p0(i64 4, ptr %15) #7
  call void @llvm.lifetime.start.p0(i64 4, ptr %16) #7
  call void @llvm.lifetime.start.p0(i64 1, ptr %17) #7
  call void @llvm.lifetime.start.p0(i64 1, ptr %18) #7
  call void @llvm.lifetime.start.p0(i64 1, ptr %19) #7
  call void @llvm.lifetime.start.p0(i64 1, ptr %20) #7
  call void @llvm.lifetime.start.p0(i64 1, ptr %21) #7
  call void @llvm.lifetime.start.p0(i64 8, ptr %22) #7
  call void @llvm.lifetime.start.p0(i64 1, ptr %23) #7
  call void @llvm.lifetime.start.p0(i64 8, ptr %24) #7
  %26 = load i32, ptr %11, align 4
  store i32 %26, ptr %14, align 4
  %27 = load ptr, ptr %13, align 8
  store ptr null, ptr %27, align 8
  %28 = load ptr, ptr %9, align 8
  %29 = load i32, ptr @hf_gsm_a_extension, align 4
  %30 = load ptr, ptr %8, align 8
  %31 = load i32, ptr %14, align 4
  %32 = call ptr @proto_tree_add_item(ptr noundef %28, i32 noundef %29, ptr noundef %30, i32 noundef %31, i32 noundef 1, i32 noundef 0)
  %33 = load ptr, ptr %9, align 8
  %34 = load i32, ptr @hf_gsm_a_dtap_type_of_sub_addr, align 4
  %35 = load ptr, ptr %8, align 8
  %36 = load i32, ptr %14, align 4
  %37 = call ptr @proto_tree_add_item(ptr noundef %33, i32 noundef %34, ptr noundef %35, i32 noundef %36, i32 noundef 1, i32 noundef 0)
  %38 = load ptr, ptr %9, align 8
  %39 = load i32, ptr @hf_gsm_a_dtap_odd_even_ind, align 4
  %40 = load ptr, ptr %8, align 8
  %41 = load i32, ptr %14, align 4
  %42 = call ptr @proto_tree_add_item(ptr noundef %38, i32 noundef %39, ptr noundef %40, i32 noundef %41, i32 noundef 1, i32 noundef 0)
  %43 = load ptr, ptr %9, align 8
  %44 = load i32, ptr @hf_gsm_a_spare_bits, align 4
  %45 = load ptr, ptr %8, align 8
  %46 = load i32, ptr %14, align 4
  %47 = shl i32 %46, 3
  %48 = add i32 %47, 5
  %49 = call ptr @proto_tree_add_bits_item(ptr noundef %43, i32 noundef %44, ptr noundef %45, i32 noundef %48, i32 noundef 3, i32 noundef 0)
  %50 = load ptr, ptr %8, align 8
  %51 = load i32, ptr %14, align 4
  %52 = call zeroext i8 @tvb_get_uint8(ptr noundef %50, i32 noundef %51)
  %53 = zext i8 %52 to i32
  %54 = and i32 %53, 112
  %55 = ashr i32 %54, 4
  %56 = trunc i32 %55 to i8
  store i8 %56, ptr %17, align 1
  %57 = load i32, ptr %14, align 4
  %58 = add i32 %57, 1
  store i32 %58, ptr %14, align 4
  %59 = load i32, ptr %12, align 4
  %60 = load i32, ptr %14, align 4
  %61 = load i32, ptr %11, align 4
  %62 = sub i32 %60, %61
  %63 = icmp ule i32 %59, %62
  br i1 %63, label %64, label %67

64:                                               ; preds = %6
  %65 = load i32, ptr %12, align 4
  %66 = trunc i32 %65 to i16
  store i16 %66, ptr %7, align 2
  store i32 1, ptr %25, align 4
  br label %198

67:                                               ; preds = %6
  %68 = load i8, ptr %17, align 1
  %69 = icmp ne i8 %68, 0
  br i1 %69, label %185, label %70

70:                                               ; preds = %67
  %71 = load ptr, ptr %8, align 8
  %72 = load i32, ptr %14, align 4
  %73 = call zeroext i8 @tvb_get_uint8(ptr noundef %71, i32 noundef %72)
  store i8 %73, ptr %18, align 1
  %74 = load ptr, ptr %9, align 8
  %75 = load i32, ptr @hf_gsm_a_dtap_afi, align 4
  %76 = load ptr, ptr %8, align 8
  %77 = load i32, ptr %14, align 4
  %78 = call ptr @proto_tree_add_item(ptr noundef %74, i32 noundef %75, ptr noundef %76, i32 noundef %77, i32 noundef 1, i32 noundef 0)
  %79 = load i32, ptr %14, align 4
  %80 = add i32 %79, 1
  store i32 %80, ptr %14, align 4
  %81 = load i32, ptr %12, align 4
  %82 = load i32, ptr %14, align 4
  %83 = load i32, ptr %11, align 4
  %84 = sub i32 %82, %83
  %85 = icmp ule i32 %81, %84
  br i1 %85, label %86, label %89

86:                                               ; preds = %70
  %87 = load i32, ptr %12, align 4
  %88 = trunc i32 %87 to i16
  store i16 %88, ptr %7, align 2
  store i32 1, ptr %25, align 4
  br label %198

89:                                               ; preds = %70
  %90 = load i8, ptr %18, align 1
  %91 = zext i8 %90 to i32
  %92 = icmp eq i32 %91, 80
  br i1 %92, label %93, label %184

93:                                               ; preds = %89
  %94 = load i32, ptr %12, align 4
  %95 = load i32, ptr %14, align 4
  %96 = load i32, ptr %11, align 4
  %97 = sub i32 %95, %96
  %98 = sub i32 %94, %97
  store i32 %98, ptr %15, align 4
  %99 = load ptr, ptr %10, align 8
  %100 = getelementptr inbounds nuw %struct._packet_info, ptr %99, i32 0, i32 51
  %101 = load ptr, ptr %100, align 8
  %102 = load ptr, ptr %8, align 8
  %103 = load i32, ptr %14, align 4
  %104 = load i32, ptr %15, align 4
  %105 = zext i32 %104 to i64
  %106 = call ptr @tvb_memdup(ptr noundef %101, ptr noundef %102, i32 noundef %103, i64 noundef %105)
  store ptr %106, ptr %22, align 8
  %107 = load ptr, ptr %10, align 8
  %108 = getelementptr inbounds nuw %struct._packet_info, ptr %107, i32 0, i32 51
  %109 = load ptr, ptr %108, align 8
  %110 = load i32, ptr %15, align 4
  %111 = add i32 %110, 1
  %112 = zext i32 %111 to i64
  %113 = call noalias ptr @wmem_alloc(ptr noundef %109, i64 noundef %112) #9
  %114 = load ptr, ptr %13, align 8
  store ptr %113, ptr %114, align 8
  store i8 0, ptr %23, align 1
  store i32 0, ptr %16, align 4
  br label %115

115:                                              ; preds = %155, %93
  %116 = load i32, ptr %16, align 4
  %117 = load i32, ptr %15, align 4
  %118 = icmp ult i32 %116, %117
  br i1 %118, label %119, label %158

119:                                              ; preds = %115
  %120 = load ptr, ptr %22, align 8
  %121 = load i32, ptr %16, align 4
  %122 = zext i32 %121 to i64
  %123 = getelementptr i8, ptr %120, i64 %122
  %124 = load i8, ptr %123, align 1
  %125 = sext i8 %124 to i32
  %126 = and i32 %125, 240
  %127 = ashr i32 %126, 4
  %128 = trunc i32 %127 to i8
  store i8 %128, ptr %19, align 1
  %129 = load ptr, ptr %22, align 8
  %130 = load i32, ptr %16, align 4
  %131 = zext i32 %130 to i64
  %132 = getelementptr i8, ptr %129, i64 %131
  %133 = load i8, ptr %132, align 1
  %134 = sext i8 %133 to i32
  %135 = and i32 %134, 15
  %136 = trunc i32 %135 to i8
  store i8 %136, ptr %20, align 1
  %137 = load i8, ptr %19, align 1
  %138 = zext i8 %137 to i32
  %139 = mul i32 %138, 10
  %140 = load i8, ptr %20, align 1
  %141 = zext i8 %140 to i32
  %142 = add i32 %139, %141
  %143 = add i32 %142, 32
  %144 = trunc i32 %143 to i8
  store i8 %144, ptr %21, align 1
  %145 = load i8, ptr %21, align 1
  %146 = zext i8 %145 to i32
  %147 = icmp sgt i32 %146, 127
  br i1 %147, label %148, label %149

148:                                              ; preds = %119
  store i8 1, ptr %23, align 1
  br label %149

149:                                              ; preds = %148, %119
  %150 = load i8, ptr %21, align 1
  %151 = load ptr, ptr %22, align 8
  %152 = load i32, ptr %16, align 4
  %153 = zext i32 %152 to i64
  %154 = getelementptr i8, ptr %151, i64 %153
  store i8 %150, ptr %154, align 1
  br label %155

155:                                              ; preds = %149
  %156 = load i32, ptr %16, align 4
  %157 = add i32 %156, 1
  store i32 %157, ptr %16, align 4
  br label %115, !llvm.loop !23

158:                                              ; preds = %115
  %159 = load ptr, ptr %13, align 8
  %160 = load ptr, ptr %159, align 8
  %161 = load ptr, ptr %22, align 8
  %162 = load i32, ptr %15, align 4
  call void @IA5_7BIT_decode(ptr noundef %160, ptr noundef %161, i32 noundef %162)
  %163 = load ptr, ptr %9, align 8
  %164 = load i32, ptr @hf_gsm_a_dtap_subaddress, align 4
  %165 = load ptr, ptr %8, align 8
  %166 = load i32, ptr %14, align 4
  %167 = load i32, ptr %12, align 4
  %168 = load i32, ptr %14, align 4
  %169 = load i32, ptr %11, align 4
  %170 = sub i32 %168, %169
  %171 = sub i32 %167, %170
  %172 = load ptr, ptr %13, align 8
  %173 = load ptr, ptr %172, align 8
  %174 = call ptr @proto_tree_add_string(ptr noundef %163, i32 noundef %164, ptr noundef %165, i32 noundef %166, i32 noundef %171, ptr noundef %173)
  store ptr %174, ptr %24, align 8
  %175 = load i8, ptr %23, align 1, !range !6, !noundef !7
  %176 = trunc i8 %175 to i1
  br i1 %176, label %177, label %181

177:                                              ; preds = %158
  %178 = load ptr, ptr %10, align 8
  %179 = load ptr, ptr %24, align 8
  %180 = call ptr @expert_add_info(ptr noundef %178, ptr noundef %179, ptr noundef @ei_gsm_a_dtap_invalid_ia5_character)
  br label %181

181:                                              ; preds = %177, %158
  %182 = load i32, ptr %12, align 4
  %183 = trunc i32 %182 to i16
  store i16 %183, ptr %7, align 2
  store i32 1, ptr %25, align 4
  br label %198

184:                                              ; preds = %89
  br label %185

185:                                              ; preds = %184, %67
  %186 = load ptr, ptr %9, align 8
  %187 = load i32, ptr @hf_gsm_a_dtap_subaddress_information, align 4
  %188 = load ptr, ptr %8, align 8
  %189 = load i32, ptr %14, align 4
  %190 = load i32, ptr %12, align 4
  %191 = load i32, ptr %14, align 4
  %192 = load i32, ptr %11, align 4
  %193 = sub i32 %191, %192
  %194 = sub i32 %190, %193
  %195 = call ptr @proto_tree_add_item(ptr noundef %186, i32 noundef %187, ptr noundef %188, i32 noundef %189, i32 noundef %194, i32 noundef 0)
  %196 = load i32, ptr %12, align 4
  %197 = trunc i32 %196 to i16
  store i16 %197, ptr %7, align 2
  store i32 1, ptr %25, align 4
  br label %198

198:                                              ; preds = %185, %181, %86, %64
  call void @llvm.lifetime.end.p0(i64 8, ptr %24) #7
  call void @llvm.lifetime.end.p0(i64 1, ptr %23) #7
  call void @llvm.lifetime.end.p0(i64 8, ptr %22) #7
  call void @llvm.lifetime.end.p0(i64 1, ptr %21) #7
  call void @llvm.lifetime.end.p0(i64 1, ptr %20) #7
  call void @llvm.lifetime.end.p0(i64 1, ptr %19) #7
  call void @llvm.lifetime.end.p0(i64 1, ptr %18) #7
  call void @llvm.lifetime.end.p0(i64 1, ptr %17) #7
  call void @llvm.lifetime.end.p0(i64 4, ptr %16) #7
  call void @llvm.lifetime.end.p0(i64 4, ptr %15) #7
  call void @llvm.lifetime.end.p0(i64 4, ptr %14) #7
  %199 = load i16, ptr %7, align 2
  ret i16 %199
}