; Function Attrs: null_pointer_is_valid sspstrong uwtable
define internal fastcc void @de_sub_addr(ptr noundef %0, ptr noundef %1, ptr noundef %2, i32 noundef %3, i32 noundef %4, ptr noundef captures(none) initializes((0, 8)) %5) unnamed_addr #1 {
  store ptr null, ptr %5, align 8
  %7 = load i32, ptr @hf_gsm_a_extension, align 4
  %8 = tail call ptr @proto_tree_add_item(ptr noundef %1, i32 noundef %7, ptr noundef %0, i32 noundef %3, i32 noundef 1, i32 noundef 0)
  %9 = load i32, ptr @hf_gsm_a_dtap_type_of_sub_addr, align 4
  %10 = tail call ptr @proto_tree_add_item(ptr noundef %1, i32 noundef %9, ptr noundef %0, i32 noundef %3, i32 noundef 1, i32 noundef 0)
  %11 = load i32, ptr @hf_gsm_a_dtap_odd_even_ind, align 4
  %12 = tail call ptr @proto_tree_add_item(ptr noundef %1, i32 noundef %11, ptr noundef %0, i32 noundef %3, i32 noundef 1, i32 noundef 0)
  %13 = load i32, ptr @hf_gsm_a_spare_bits, align 4
  %14 = shl i32 %3, 3
  %15 = or disjoint i32 %14, 5
  %16 = tail call ptr @proto_tree_add_bits_item(ptr noundef %1, i32 noundef %13, ptr noundef %0, i32 noundef %15, i32 noundef 3, i32 noundef 0)
  %17 = tail call zeroext i8 @tvb_get_uint8(ptr noundef %0, i32 noundef %3)
  %18 = add i32 %3, 1
  %19 = icmp ult i32 %4, 2
  br i1 %19, label %55, label %20

20:                                               ; preds = %6
  %21 = and i8 %17, 112
  %.not = icmp eq i8 %21, 0
  br i1 %.not, label %22, label %51

22:                                               ; preds = %20
  %23 = tail call zeroext i8 @tvb_get_uint8(ptr noundef %0, i32 noundef %18)
  %24 = load i32, ptr @hf_gsm_a_dtap_afi, align 4
  %25 = tail call ptr @proto_tree_add_item(ptr noundef %1, i32 noundef %24, ptr noundef %0, i32 noundef %18, i32 noundef 1, i32 noundef 0)
  %26 = add i32 %3, 2
  %27 = icmp eq i32 %4, 2
  br i1 %27, label %55, label %28

28:                                               ; preds = %22
  %29 = icmp eq i8 %23, 80
  br i1 %29, label %.lr.ph.preheader, label %51

.lr.ph.preheader:                                 ; preds = %28
  %30 = add i32 %4, -2
  %31 = getelementptr inbounds nuw i8, ptr %2, i64 408
  %32 = load ptr, ptr %31, align 8
  %33 = zext i32 %30 to i64
  %34 = tail call ptr @tvb_memdup(ptr noundef %32, ptr noundef %0, i32 noundef %26, i64 noundef %33)
  %35 = load ptr, ptr %31, align 8
  %36 = add i32 %4, -1
  %37 = zext i32 %36 to i64
  %38 = tail call noalias ptr @wmem_alloc(ptr noundef %35, i64 noundef %37) #10
  store ptr %38, ptr %5, align 8
  br label %.lr.ph

.lr.ph:                                           ; preds = %.lr.ph.preheader, %.lr.ph
  %indvars.iv = phi i64 [ 0, %.lr.ph.preheader ], [ %indvars.iv.next, %.lr.ph ]
  %.07784 = phi i1 [ false, %.lr.ph.preheader ], [ %spec.select, %.lr.ph ]
  %39 = getelementptr i8, ptr %34, i64 %indvars.iv
  %40 = load i8, ptr %39, align 1
  %41 = lshr i8 %40, 4
  %42 = and i8 %40, 15
  %narrow = mul nuw i8 %41, 10
  %43 = or disjoint i8 %42, 32
  %44 = add nuw i8 %43, %narrow
  %45 = icmp slt i8 %44, 0
  %spec.select = select i1 %45, i1 true, i1 %.07784
  store i8 %44, ptr %39, align 1
  %indvars.iv.next = add nuw nsw i64 %indvars.iv, 1
  %exitcond.not = icmp eq i64 %indvars.iv.next, %33
  br i1 %exitcond.not, label %._crit_edge, label %.lr.ph, !llvm.loop !21

._crit_edge:                                      ; preds = %.lr.ph
  %.pre = load ptr, ptr %5, align 8
  tail call void @IA5_7BIT_decode(ptr noundef %.pre, ptr noundef %34, i32 noundef %30)
  %46 = load i32, ptr @hf_gsm_a_dtap_subaddress, align 4
  %47 = load ptr, ptr %5, align 8
  %48 = tail call ptr @proto_tree_add_string(ptr noundef %1, i32 noundef %46, ptr noundef %0, i32 noundef %26, i32 noundef %30, ptr noundef %47)
  br i1 %spec.select, label %49, label %55

49:                                               ; preds = %._crit_edge
  %50 = tail call ptr @expert_add_info(ptr noundef %2, ptr noundef %48, ptr noundef nonnull @ei_gsm_a_dtap_invalid_ia5_character)
  br label %55

51:                                               ; preds = %28, %20
  %.078 = phi i32 [ %18, %20 ], [ %26, %28 ]
  %52 = load i32, ptr @hf_gsm_a_dtap_subaddress_information, align 4
  %.neg = add i32 %4, %3
  %53 = sub i32 %.neg, %.078
  %54 = tail call ptr @proto_tree_add_item(ptr noundef %1, i32 noundef %52, ptr noundef %0, i32 noundef %.078, i32 noundef %53, i32 noundef 0)
  br label %55

55:                                               ; preds = %._crit_edge, %49, %6, %22, %51
  ret void
}